target datalayout = "e-m:e-p270:32:32-p271:32:32-p272:64:64-i64:64-i128:128-f80:128-n8:16:32:64-S128"
target triple = "x86_64-unknown-linux-gnu"

%struct.V9fsPath = type { i16, ptr }
%struct.V9fsState = type { %struct.anon, %struct.anon.0, ptr, ptr, %struct.FsContext, ptr, i32, i32, [128 x %struct.V9fsPDU], ptr, %struct.CoRwlock, i32, ptr, %struct.V9fsConf, %struct.stat, i64, %struct.qht, %struct.qht, %struct.qht, i64, i16, i64 }
%struct.anon = type { ptr }
%struct.anon.0 = type { ptr }
%struct.FsContext = type { i32, ptr, i32, ptr, %struct.ExtendedOps, ptr, ptr, i32, i32 }
%struct.ExtendedOps = type { ptr }
%struct.V9fsPDU = type { i32, i16, i8, i8, %struct.CoQueue, ptr, %struct.anon.2, i32 }
%struct.CoQueue = type { %struct.anon.1 }
%struct.anon.1 = type { ptr, ptr }
%struct.anon.2 = type { ptr, ptr }
%struct.CoRwlock = type { %struct.CoMutex, i32, %struct.anon.4 }
%struct.CoMutex = type { i32, ptr, %struct.anon.3, %struct.anon.3, i32, i32, ptr }
%struct.anon.3 = type { ptr }
%struct.anon.4 = type { ptr, ptr }
%struct.V9fsConf = type { ptr, ptr }
%struct.stat = type { i64, i64, i64, i32, i32, i32, i32, i64, i64, i64, i64, %struct.timespec, %struct.timespec, %struct.timespec, [3 x i64] }
%struct.timespec = type { i64, i64 }
%struct.qht = type { ptr, ptr, %struct.QemuMutex, i32 }
%struct.QemuMutex = type { %union.pthread_mutex_t, i8 }
%union.pthread_mutex_t = type { %struct.__pthread_mutex_s }
%struct.__pthread_mutex_s = type { i32, i32, i32, i32, i32, i16, i16, %struct.__pthread_internal_list }
%struct.__pthread_internal_list = type { ptr, ptr }
%struct.V9fsFidState = type { i32, i32, %struct.V9fsPath, %union.V9fsFidOpenState, %union.V9fsFidOpenState, i32, i32, i32, i32, i8, %struct.anon.6, %struct.anon.7 }
%union.V9fsFidOpenState = type { %struct.V9fsDir }
%struct.V9fsDir = type { ptr, i32, %struct.CoMutex, %struct.QemuMutex }
%struct.anon.6 = type { ptr }
%struct.anon.7 = type { ptr }

; Function Attrs: nounwind sspstrong uwtable
define internal ptr @clunk_fid(ptr noundef %s, i32 noundef %fid) #0 {
entry:
  %retval = alloca ptr, align 8
  %s.addr = alloca ptr, align 8
  %fid.addr = alloca i32, align 4
  %fidp = alloca ptr, align 8
  store ptr %s, ptr %s.addr, align 8
  store i32 %fid, ptr %fid.addr, align 4
  %0 = load ptr, ptr %s.addr, align 8
  %fids = getelementptr inbounds %struct.V9fsState, ptr %0, i32 0, i32 2
  %1 = load ptr, ptr %fids, align 8
  %2 = load i32, ptr %fid.addr, align 4
  %conv = sext i32 %2 to i64
  %3 = inttoptr i64 %conv to ptr
  %call = call ptr @g_hash_table_lookup(ptr noundef %1, ptr noundef %3)
  store ptr %call, ptr %fidp, align 8
  %4 = load ptr, ptr %fidp, align 8
  %tobool = icmp ne ptr %4, null
  br i1 %tobool, label %if.then, label %if.end

if.then:                                          ; preds = %entry
  %5 = load ptr, ptr %s.addr, align 8
  %fids1 = getelementptr inbounds %struct.V9fsState, ptr %5, i32 0, i32 2
  %6 = load ptr, ptr %fids1, align 8
  %7 = load i32, ptr %fid.addr, align 4
  %conv2 = sext i32 %7 to i64
  %8 = inttoptr i64 %conv2 to ptr
  %call3 = call i32 @g_hash_table_remove(ptr noundef %6, ptr noundef %8)
  %9 = load ptr, ptr %fidp, align 8
  %clunked = getelementptr inbounds %struct.V9fsFidState, ptr %9, i32 0, i32 9
  store i8 1, ptr %clunked, align 8
  %10 = load ptr, ptr %fidp, align 8
  store ptr %10, ptr %retval, align 8
  br label %return

if.end:                                           ; preds = %entry
  store ptr null, ptr %retval, align 8
  br label %return

return:                                           ; preds = %if.end, %if.then
  %11 = load ptr, ptr %retval, align 8
  ret ptr %11
}