; Function Attrs: nounwind sspstrong uwtable
define internal fastcc void @clunk_fid(ptr noundef readonly captures(none) %s, i32 noundef %fid) unnamed_addr #0 {
entry:
  %fids = getelementptr inbounds nuw i8, ptr %s, i64 16
  %0 = load ptr, ptr %fids, align 8
  %conv = sext i32 %fid to i64
  %1 = inttoptr i64 %conv to ptr
  %call = tail call ptr @g_hash_table_lookup(ptr noundef %0, ptr noundef %1) #24
  %tobool.not = icmp eq ptr %call, null
  br i1 %tobool.not, label %return, label %if.then

if.then:                                          ; preds = %entry
  %2 = load ptr, ptr %fids, align 8
  %call3 = tail call i32 @g_hash_table_remove(ptr noundef %2, ptr noundef %1) #24
  %clunked = getelementptr inbounds nuw i8, ptr %call, i64 264
  store i8 1, ptr %clunked, align 8
  br label %return

return:                                           ; preds = %entry, %if.then
  ret void
}